target datalayout = "e-m:e-p270:32:32-p271:32:32-p272:64:64-i64:64-i128:128-f80:128-n8:16:32:64-S128"
target triple = "x86_64-pc-linux-gnu"

%struct.uv_tcp_s = type { ptr, ptr, i32, ptr, [2 x ptr], %union.anon, ptr, i32, i64, ptr, ptr, ptr, ptr, %struct.uv__io_s, [2 x ptr], [2 x ptr], ptr, i32, i32, ptr }
%union.anon = type { [4 x ptr] }
%struct.uv__io_s = type { ptr, [2 x ptr], [2 x ptr], i32, i32, i32 }
%struct.sockaddr_storage = type { i16, [118 x i8], i64 }
%union.__SOCKADDR_ARG = type { ptr }
%union.__CONST_SOCKADDR_ARG = type { ptr }
%struct.sockaddr_in6 = type { i16, i16, i32, %struct.in6_addr, i32 }
%struct.in6_addr = type { %union.anon.4 }
%union.anon.4 = type { [4 x i32] }
%struct.sockaddr_in = type { i16, i16, %struct.in_addr, [8 x i8] }
%struct.in_addr = type { i32 }
%struct.sockaddr = type { i16, [14 x i8] }

; Function Attrs: nounwind uwtable
define internal i32 @new_socket(ptr noundef %0, i32 noundef %1, i64 noundef %2) #0 {
  %4 = alloca i32, align 4
  %5 = alloca ptr, align 8
  %6 = alloca i32, align 4
  %7 = alloca i64, align 8
  %8 = alloca %struct.sockaddr_storage, align 8
  %9 = alloca i32, align 4
  %10 = alloca i32, align 4
  %11 = alloca i32, align 4
  %12 = alloca i32, align 4
  %13 = alloca %union.__SOCKADDR_ARG, align 8
  %14 = alloca %union.__CONST_SOCKADDR_ARG, align 8
  store ptr %0, ptr %5, align 8, !tbaa !9
  store i32 %1, ptr %6, align 4, !tbaa !11
  store i64 %2, ptr %7, align 8, !tbaa !14
  call void @llvm.lifetime.start.p0(i64 128, ptr %8) #8
  call void @llvm.lifetime.start.p0(i64 4, ptr %9) #8
  call void @llvm.lifetime.start.p0(i64 4, ptr %10) #8
  call void @llvm.lifetime.start.p0(i64 4, ptr %11) #8
  %15 = load i32, ptr %6, align 4, !tbaa !11
  %16 = call i32 @uv__socket(i32 noundef %15, i32 noundef 1, i32 noundef 0)
  store i32 %16, ptr %11, align 4, !tbaa !11
  %17 = load i32, ptr %11, align 4, !tbaa !11
  %18 = icmp slt i32 %17, 0
  br i1 %18, label %19, label %21

19:                                               ; preds = %3
  %20 = load i32, ptr %11, align 4, !tbaa !11
  store i32 %20, ptr %4, align 4
  store i32 1, ptr %12, align 4
  br label %71

21:                                               ; preds = %3
  %22 = load i32, ptr %11, align 4, !tbaa !11
  store i32 %22, ptr %10, align 4, !tbaa !11
  %23 = load ptr, ptr %5, align 8, !tbaa !9
  %24 = load i32, ptr %10, align 4, !tbaa !11
  %25 = load i64, ptr %7, align 8, !tbaa !14
  %26 = trunc i64 %25 to i32
  %27 = call i32 @uv__stream_open(ptr noundef %23, i32 noundef %24, i32 noundef %26)
  store i32 %27, ptr %11, align 4, !tbaa !11
  %28 = load i32, ptr %11, align 4, !tbaa !11
  %29 = icmp ne i32 %28, 0
  br i1 %29, label %30, label %34

30:                                               ; preds = %21
  %31 = load i32, ptr %10, align 4, !tbaa !11
  %32 = call i32 @uv__close(i32 noundef %31)
  %33 = load i32, ptr %11, align 4, !tbaa !11
  store i32 %33, ptr %4, align 4
  store i32 1, ptr %12, align 4
  br label %71

34:                                               ; preds = %21
  %35 = load i64, ptr %7, align 8, !tbaa !14
  %36 = and i64 %35, 8192
  %37 = icmp ne i64 %36, 0
  br i1 %37, label %38, label %70

38:                                               ; preds = %34
  store i32 128, ptr %9, align 4, !tbaa !11
  call void @llvm.memset.p0.i64(ptr align 8 %8, i8 0, i64 128, i1 false)
  %39 = load ptr, ptr %5, align 8, !tbaa !9
  %40 = getelementptr inbounds nuw %struct.uv_tcp_s, ptr %39, i32 0, i32 13
  %41 = getelementptr inbounds nuw %struct.uv__io_s, ptr %40, i32 0, i32 5
  %42 = load i32, ptr %41, align 8, !tbaa !22
  store ptr %8, ptr %13, align 8, !tbaa !23
  %43 = getelementptr inbounds nuw %union.__SOCKADDR_ARG, ptr %13, i32 0, i32 0
  %44 = load ptr, ptr %43, align 8
  %45 = call i32 @getsockname(i32 noundef %42, ptr %44, ptr noundef %9) #8
  %46 = icmp ne i32 %45, 0
  br i1 %46, label %47, label %53

47:                                               ; preds = %38
  %48 = load i32, ptr %10, align 4, !tbaa !11
  %49 = call i32 @uv__close(i32 noundef %48)
  %50 = call ptr @__errno_location() #9
  %51 = load i32, ptr %50, align 4, !tbaa !11
  %52 = sub nsw i32 0, %51
  store i32 %52, ptr %4, align 4
  store i32 1, ptr %12, align 4
  br label %71

53:                                               ; preds = %38
  %54 = load ptr, ptr %5, align 8, !tbaa !9
  %55 = getelementptr inbounds nuw %struct.uv_tcp_s, ptr %54, i32 0, i32 13
  %56 = getelementptr inbounds nuw %struct.uv__io_s, ptr %55, i32 0, i32 5
  %57 = load i32, ptr %56, align 8, !tbaa !22
  store ptr %8, ptr %14, align 8, !tbaa !23
  %58 = load i32, ptr %9, align 4, !tbaa !11
  %59 = getelementptr inbounds nuw %union.__CONST_SOCKADDR_ARG, ptr %14, i32 0, i32 0
  %60 = load ptr, ptr %59, align 8
  %61 = call i32 @bind(i32 noundef %57, ptr %60, i32 noundef %58) #8
  %62 = icmp ne i32 %61, 0
  br i1 %62, label %63, label %69

63:                                               ; preds = %53
  %64 = load i32, ptr %10, align 4, !tbaa !11
  %65 = call i32 @uv__close(i32 noundef %64)
  %66 = call ptr @__errno_location() #9
  %67 = load i32, ptr %66, align 4, !tbaa !11
  %68 = sub nsw i32 0, %67
  store i32 %68, ptr %4, align 4
  store i32 1, ptr %12, align 4
  br label %71

69:                                               ; preds = %53
  br label %70

70:                                               ; preds = %69, %34
  store i32 0, ptr %4, align 4
  store i32 1, ptr %12, align 4
  br label %71

71:                                               ; preds = %70, %63, %47, %30, %19
  call void @llvm.lifetime.end.p0(i64 4, ptr %11) #8
  call void @llvm.lifetime.end.p0(i64 4, ptr %10) #8
  call void @llvm.lifetime.end.p0(i64 4, ptr %9) #8
  call void @llvm.lifetime.end.p0(i64 128, ptr %8) #8
  %72 = load i32, ptr %4, align 4
  ret i32 %72
}

; Function Attrs: nounwind uwtable
define internal i32 @maybe_new_socket(ptr noundef %0, i32 noundef %1, i64 noundef %2) #0 {
  %4 = alloca i32, align 4
  %5 = alloca ptr, align 8
  %6 = alloca i32, align 4
  %7 = alloca i64, align 8
  %8 = alloca %struct.sockaddr_storage, align 8
  %9 = alloca i32, align 4
  %10 = alloca i32, align 4
  %11 = alloca %union.__SOCKADDR_ARG, align 8
  %12 = alloca %union.__CONST_SOCKADDR_ARG, align 8
  store ptr %0, ptr %5, align 8, !tbaa !9
  store i32 %1, ptr %6, align 4, !tbaa !11
  store i64 %2, ptr %7, align 8, !tbaa !14
  call void @llvm.lifetime.start.p0(i64 128, ptr %8) #8
  call void @llvm.lifetime.start.p0(i64 4, ptr %9) #8
  %13 = load i32, ptr %6, align 4, !tbaa !11
  %14 = icmp eq i32 %13, 0
  br i1 %14, label %15, label %23

15:                                               ; preds = %3
  %16 = load i64, ptr %7, align 8, !tbaa !14
  %17 = load ptr, ptr %5, align 8, !tbaa !9
  %18 = getelementptr inbounds nuw %struct.uv_tcp_s, ptr %17, i32 0, i32 7
  %19 = load i32, ptr %18, align 8, !tbaa !16
  %20 = zext i32 %19 to i64
  %21 = or i64 %20, %16
  %22 = trunc i64 %21 to i32
  store i32 %22, ptr %18, align 8, !tbaa !16
  store i32 0, ptr %4, align 4
  store i32 1, ptr %10, align 4
  br label %116

23:                                               ; preds = %3
  %24 = load ptr, ptr %5, align 8, !tbaa !9
  %25 = getelementptr inbounds nuw %struct.uv_tcp_s, ptr %24, i32 0, i32 13
  %26 = getelementptr inbounds nuw %struct.uv__io_s, ptr %25, i32 0, i32 5
  %27 = load i32, ptr %26, align 8, !tbaa !22
  %28 = icmp ne i32 %27, -1
  br i1 %28, label %29, label %111

29:                                               ; preds = %23
  %30 = load i64, ptr %7, align 8, !tbaa !14
  %31 = and i64 %30, 8192
  %32 = icmp ne i64 %31, 0
  br i1 %32, label %33, label %103

33:                                               ; preds = %29
  %34 = load ptr, ptr %5, align 8, !tbaa !9
  %35 = getelementptr inbounds nuw %struct.uv_tcp_s, ptr %34, i32 0, i32 7
  %36 = load i32, ptr %35, align 8, !tbaa !16
  %37 = and i32 %36, 8192
  %38 = icmp ne i32 %37, 0
  br i1 %38, label %39, label %47

39:                                               ; preds = %33
  %40 = load i64, ptr %7, align 8, !tbaa !14
  %41 = load ptr, ptr %5, align 8, !tbaa !9
  %42 = getelementptr inbounds nuw %struct.uv_tcp_s, ptr %41, i32 0, i32 7
  %43 = load i32, ptr %42, align 8, !tbaa !16
  %44 = zext i32 %43 to i64
  %45 = or i64 %44, %40
  %46 = trunc i64 %45 to i32
  store i32 %46, ptr %42, align 8, !tbaa !16
  store i32 0, ptr %4, align 4
  store i32 1, ptr %10, align 4
  br label %116

47:                                               ; preds = %33
  store i32 128, ptr %9, align 4, !tbaa !11
  call void @llvm.memset.p0.i64(ptr align 8 %8, i8 0, i64 128, i1 false)
  %48 = load ptr, ptr %5, align 8, !tbaa !9
  %49 = getelementptr inbounds nuw %struct.uv_tcp_s, ptr %48, i32 0, i32 13
  %50 = getelementptr inbounds nuw %struct.uv__io_s, ptr %49, i32 0, i32 5
  %51 = load i32, ptr %50, align 8, !tbaa !22
  store ptr %8, ptr %11, align 8, !tbaa !23
  %52 = getelementptr inbounds nuw %union.__SOCKADDR_ARG, ptr %11, i32 0, i32 0
  %53 = load ptr, ptr %52, align 8
  %54 = call i32 @getsockname(i32 noundef %51, ptr %53, ptr noundef %9) #8
  %55 = icmp ne i32 %54, 0
  br i1 %55, label %56, label %60

56:                                               ; preds = %47
  %57 = call ptr @__errno_location() #9
  %58 = load i32, ptr %57, align 4, !tbaa !11
  %59 = sub nsw i32 0, %58
  store i32 %59, ptr %4, align 4
  store i32 1, ptr %10, align 4
  br label %116

60:                                               ; preds = %47
  %61 = getelementptr inbounds nuw %struct.sockaddr_storage, ptr %8, i32 0, i32 0
  %62 = load i16, ptr %61, align 8, !tbaa !24
  %63 = zext i16 %62 to i32
  %64 = icmp eq i32 %63, 10
  br i1 %64, label %65, label %70

65:                                               ; preds = %60
  %66 = getelementptr inbounds nuw %struct.sockaddr_in6, ptr %8, i32 0, i32 1
  %67 = load i16, ptr %66, align 2, !tbaa !27
  %68 = zext i16 %67 to i32
  %69 = icmp ne i32 %68, 0
  br i1 %69, label %80, label %70

70:                                               ; preds = %65, %60
  %71 = getelementptr inbounds nuw %struct.sockaddr_storage, ptr %8, i32 0, i32 0
  %72 = load i16, ptr %71, align 8, !tbaa !24
  %73 = zext i16 %72 to i32
  %74 = icmp eq i32 %73, 2
  br i1 %74, label %75, label %88

75:                                               ; preds = %70
  %76 = getelementptr inbounds nuw %struct.sockaddr_in, ptr %8, i32 0, i32 1
  %77 = load i16, ptr %76, align 2, !tbaa !30
  %78 = zext i16 %77 to i32
  %79 = icmp ne i32 %78, 0
  br i1 %79, label %80, label %88

80:                                               ; preds = %75, %65
  %81 = load i64, ptr %7, align 8, !tbaa !14
  %82 = load ptr, ptr %5, align 8, !tbaa !9
  %83 = getelementptr inbounds nuw %struct.uv_tcp_s, ptr %82, i32 0, i32 7
  %84 = load i32, ptr %83, align 8, !tbaa !16
  %85 = zext i32 %84 to i64
  %86 = or i64 %85, %81
  %87 = trunc i64 %86 to i32
  store i32 %87, ptr %83, align 8, !tbaa !16
  store i32 0, ptr %4, align 4
  store i32 1, ptr %10, align 4
  br label %116

88:                                               ; preds = %75, %70
  %89 = load ptr, ptr %5, align 8, !tbaa !9
  %90 = getelementptr inbounds nuw %struct.uv_tcp_s, ptr %89, i32 0, i32 13
  %91 = getelementptr inbounds nuw %struct.uv__io_s, ptr %90, i32 0, i32 5
  %92 = load i32, ptr %91, align 8, !tbaa !22
  store ptr %8, ptr %12, align 8, !tbaa !23
  %93 = load i32, ptr %9, align 4, !tbaa !11
  %94 = getelementptr inbounds nuw %union.__CONST_SOCKADDR_ARG, ptr %12, i32 0, i32 0
  %95 = load ptr, ptr %94, align 8
  %96 = call i32 @bind(i32 noundef %92, ptr %95, i32 noundef %93) #8
  %97 = icmp ne i32 %96, 0
  br i1 %97, label %98, label %102

98:                                               ; preds = %88
  %99 = call ptr @__errno_location() #9
  %100 = load i32, ptr %99, align 4, !tbaa !11
  %101 = sub nsw i32 0, %100
  store i32 %101, ptr %4, align 4
  store i32 1, ptr %10, align 4
  br label %116

102:                                              ; preds = %88
  br label %103

103:                                              ; preds = %102, %29
  %104 = load i64, ptr %7, align 8, !tbaa !14
  %105 = load ptr, ptr %5, align 8, !tbaa !9
  %106 = getelementptr inbounds nuw %struct.uv_tcp_s, ptr %105, i32 0, i32 7
  %107 = load i32, ptr %106, align 8, !tbaa !16
  %108 = zext i32 %107 to i64
  %109 = or i64 %108, %104
  %110 = trunc i64 %109 to i32
  store i32 %110, ptr %106, align 8, !tbaa !16
  store i32 0, ptr %4, align 4
  store i32 1, ptr %10, align 4
  br label %116

111:                                              ; preds = %23
  %112 = load ptr, ptr %5, align 8, !tbaa !9
  %113 = load i32, ptr %6, align 4, !tbaa !11
  %114 = load i64, ptr %7, align 8, !tbaa !14
  %115 = call i32 @new_socket(ptr noundef %112, i32 noundef %113, i64 noundef %114)
  store i32 %115, ptr %4, align 4
  store i32 1, ptr %10, align 4
  br label %116

116:                                              ; preds = %111, %103, %98, %80, %56, %39, %15
  call void @llvm.lifetime.end.p0(i64 4, ptr %9) #8
  call void @llvm.lifetime.end.p0(i64 128, ptr %8) #8
  %117 = load i32, ptr %4, align 4
  ret i32 %117
}

; Function Attrs: nounwind uwtable
define dso_local i32 @uv__tcp_bind(ptr noundef %0, ptr noundef %1, i32 noundef %2, i32 noundef %3) #0 {
  %5 = alloca i32, align 4
  %6 = alloca ptr, align 8
  %7 = alloca ptr, align 8
  %8 = alloca i32, align 4
  %9 = alloca i32, align 4
  %10 = alloca i32, align 4
  %11 = alloca i32, align 4
  %12 = alloca i32, align 4
  %13 = alloca %union.__CONST_SOCKADDR_ARG, align 8
  store ptr %0, ptr %6, align 8, !tbaa !9
  store ptr %1, ptr %7, align 8, !tbaa !33
  store i32 %2, ptr %8, align 4, !tbaa !11
  store i32 %3, ptr %9, align 4, !tbaa !11
  call void @llvm.lifetime.start.p0(i64 4, ptr %10) #8
  call void @llvm.lifetime.start.p0(i64 4, ptr %11) #8
  %14 = load i32, ptr %9, align 4, !tbaa !11
  %15 = and i32 %14, 1
  %16 = icmp ne i32 %15, 0
  br i1 %16, label %17, label %24

17:                                               ; preds = %4
  %18 = load ptr, ptr %7, align 8, !tbaa !33
  %19 = getelementptr inbounds nuw %struct.sockaddr, ptr %18, i32 0, i32 0
  %20 = load i16, ptr %19, align 2, !tbaa !35
  %21 = zext i16 %20 to i32
  %22 = icmp ne i32 %21, 10
  br i1 %22, label %23, label %24

23:                                               ; preds = %17
  store i32 -22, ptr %5, align 4
  store i32 1, ptr %12, align 4
  br label %121

24:                                               ; preds = %17, %4
  %25 = load ptr, ptr %6, align 8, !tbaa !9
  %26 = load ptr, ptr %7, align 8, !tbaa !33
  %27 = getelementptr inbounds nuw %struct.sockaddr, ptr %26, i32 0, i32 0
  %28 = load i16, ptr %27, align 2, !tbaa !35
  %29 = zext i16 %28 to i32
  %30 = call i32 @maybe_new_socket(ptr noundef %25, i32 noundef %29, i64 noundef 0)
  store i32 %30, ptr %10, align 4, !tbaa !11
  %31 = load i32, ptr %10, align 4, !tbaa !11
  %32 = icmp ne i32 %31, 0
  br i1 %32, label %33, label %35

33:                                               ; preds = %24
  %34 = load i32, ptr %10, align 4, !tbaa !11
  store i32 %34, ptr %5, align 4
  store i32 1, ptr %12, align 4
  br label %121

35:                                               ; preds = %24
  store i32 1, ptr %11, align 4, !tbaa !11
  %36 = load ptr, ptr %6, align 8, !tbaa !9
  %37 = getelementptr inbounds nuw %struct.uv_tcp_s, ptr %36, i32 0, i32 13
  %38 = getelementptr inbounds nuw %struct.uv__io_s, ptr %37, i32 0, i32 5
  %39 = load i32, ptr %38, align 8, !tbaa !22
  %40 = call i32 @setsockopt(i32 noundef %39, i32 noundef 1, i32 noundef 2, ptr noundef %11, i32 noundef 4) #8
  %41 = icmp ne i32 %40, 0
  br i1 %41, label %42, label %46

42:                                               ; preds = %35
  %43 = call ptr @__errno_location() #9
  %44 = load i32, ptr %43, align 4, !tbaa !11
  %45 = sub nsw i32 0, %44
  store i32 %45, ptr %5, align 4
  store i32 1, ptr %12, align 4
  br label %121

46:                                               ; preds = %35
  %47 = load ptr, ptr %7, align 8, !tbaa !33
  %48 = getelementptr inbounds nuw %struct.sockaddr, ptr %47, i32 0, i32 0
  %49 = load i16, ptr %48, align 2, !tbaa !35
  %50 = zext i16 %49 to i32
  %51 = icmp eq i32 %50, 10
  br i1 %51, label %52, label %68

52:                                               ; preds = %46
  %53 = load i32, ptr %9, align 4, !tbaa !11
  %54 = and i32 %53, 1
  %55 = icmp ne i32 %54, 0
  %56 = zext i1 %55 to i32
  store i32 %56, ptr %11, align 4, !tbaa !11
  %57 = load ptr, ptr %6, align 8, !tbaa !9
  %58 = getelementptr inbounds nuw %struct.uv_tcp_s, ptr %57, i32 0, i32 13
  %59 = getelementptr inbounds nuw %struct.uv__io_s, ptr %58, i32 0, i32 5
  %60 = load i32, ptr %59, align 8, !tbaa !22
  %61 = call i32 @setsockopt(i32 noundef %60, i32 noundef 41, i32 noundef 26, ptr noundef %11, i32 noundef 4) #8
  %62 = icmp eq i32 %61, -1
  br i1 %62, label %63, label %67

63:                                               ; preds = %52
  %64 = call ptr @__errno_location() #9
  %65 = load i32, ptr %64, align 4, !tbaa !11
  %66 = sub nsw i32 0, %65
  store i32 %66, ptr %5, align 4
  store i32 1, ptr %12, align 4
  br label %121

67:                                               ; preds = %52
  br label %68

68:                                               ; preds = %67, %46
  %69 = call ptr @__errno_location() #9
  store i32 0, ptr %69, align 4, !tbaa !11
  %70 = load ptr, ptr %6, align 8, !tbaa !9
  %71 = getelementptr inbounds nuw %struct.uv_tcp_s, ptr %70, i32 0, i32 13
  %72 = getelementptr inbounds nuw %struct.uv__io_s, ptr %71, i32 0, i32 5
  %73 = load i32, ptr %72, align 8, !tbaa !22
  %74 = load ptr, ptr %7, align 8, !tbaa !33
  store ptr %74, ptr %13, align 8, !tbaa !23
  %75 = load i32, ptr %8, align 4, !tbaa !11
  %76 = getelementptr inbounds nuw %union.__CONST_SOCKADDR_ARG, ptr %13, i32 0, i32 0
  %77 = load ptr, ptr %76, align 8
  %78 = call i32 @bind(i32 noundef %73, ptr %77, i32 noundef %75) #8
  store i32 %78, ptr %10, align 4, !tbaa !11
  %79 = load i32, ptr %10, align 4, !tbaa !11
  %80 = icmp eq i32 %79, -1
  br i1 %80, label %81, label %94

81:                                               ; preds = %68
  %82 = call ptr @__errno_location() #9
  %83 = load i32, ptr %82, align 4, !tbaa !11
  %84 = icmp ne i32 %83, 98
  br i1 %84, label %85, label %94

85:                                               ; preds = %81
  %86 = call ptr @__errno_location() #9
  %87 = load i32, ptr %86, align 4, !tbaa !11
  %88 = icmp eq i32 %87, 97
  br i1 %88, label %89, label %90

89:                                               ; preds = %85
  store i32 -22, ptr %5, align 4
  store i32 1, ptr %12, align 4
  br label %121

90:                                               ; preds = %85
  %91 = call ptr @__errno_location() #9
  %92 = load i32, ptr %91, align 4, !tbaa !11
  %93 = sub nsw i32 0, %92
  store i32 %93, ptr %5, align 4
  store i32 1, ptr %12, align 4
  br label %121

94:                                               ; preds = %81, %68
  %95 = load i32, ptr %10, align 4, !tbaa !11
  %96 = icmp eq i32 %95, -1
  br i1 %96, label %97, label %101

97:                                               ; preds = %94
  %98 = call ptr @__errno_location() #9
  %99 = load i32, ptr %98, align 4, !tbaa !11
  %100 = sub nsw i32 0, %99
  br label %102

101:                                              ; preds = %94
  br label %102

102:                                              ; preds = %101, %97
  %103 = phi i32 [ %100, %97 ], [ 0, %101 ]
  %104 = load ptr, ptr %6, align 8, !tbaa !9
  %105 = getelementptr inbounds nuw %struct.uv_tcp_s, ptr %104, i32 0, i32 17
  store i32 %103, ptr %105, align 8, !tbaa !37
  %106 = load ptr, ptr %6, align 8, !tbaa !9
  %107 = getelementptr inbounds nuw %struct.uv_tcp_s, ptr %106, i32 0, i32 7
  %108 = load i32, ptr %107, align 8, !tbaa !16
  %109 = or i32 %108, 8192
  store i32 %109, ptr %107, align 8, !tbaa !16
  %110 = load ptr, ptr %7, align 8, !tbaa !33
  %111 = getelementptr inbounds nuw %struct.sockaddr, ptr %110, i32 0, i32 0
  %112 = load i16, ptr %111, align 2, !tbaa !35
  %113 = zext i16 %112 to i32
  %114 = icmp eq i32 %113, 10
  br i1 %114, label %115, label %120

115:                                              ; preds = %102
  %116 = load ptr, ptr %6, align 8, !tbaa !9
  %117 = getelementptr inbounds nuw %struct.uv_tcp_s, ptr %116, i32 0, i32 7
  %118 = load i32, ptr %117, align 8, !tbaa !16
  %119 = or i32 %118, 4194304
  store i32 %119, ptr %117, align 8, !tbaa !16
  br label %120

120:                                              ; preds = %115, %102
  store i32 0, ptr %5, align 4
  store i32 1, ptr %12, align 4
  br label %121

121:                                              ; preds = %120, %90, %89, %63, %42, %33, %23
  call void @llvm.lifetime.end.p0(i64 4, ptr %11) #8
  call void @llvm.lifetime.end.p0(i64 4, ptr %10) #8
  %122 = load i32, ptr %5, align 4
  ret i32 %122
}