; Function Attrs: nounwind uwtable
define dso_local i32 @uv__tcp_bind(ptr noundef %0, ptr noundef %1, i32 noundef %2, i32 noundef %3) local_unnamed_addr #0 {
  %5 = alloca i32, align 4
  call void @llvm.lifetime.start.p0(i64 4, ptr nonnull %5) #8
  %6 = and i32 %3, 1
  %.not23 = icmp eq i32 %6, 0
  %.pre = load i16, ptr %1, align 2, !tbaa !17
  br i1 %.not23, label %8, label %7

7:                                                ; preds = %4
  %.not = icmp eq i16 %.pre, 10
  br i1 %.not, label %.thread, label %maybe_new_socket.exit

8:                                                ; preds = %4
  %9 = zext i16 %.pre to i32
  %10 = icmp eq i16 %.pre, 0
  br i1 %10, label %21, label %.thread

.thread:                                          ; preds = %7, %8
  %11 = phi i32 [ %9, %8 ], [ 10, %7 ]
  %12 = getelementptr inbounds nuw i8, ptr %0, i64 184
  %13 = load i32, ptr %12, align 8, !tbaa !4
  %.not.i = icmp eq i32 %13, -1
  br i1 %.not.i, label %14, label %21

14:                                               ; preds = %.thread
  %15 = tail call i32 @uv__socket(i32 noundef range(i32 1, 65536) %11, i32 noundef 1, i32 noundef 0) #8
  %16 = icmp slt i32 %15, 0
  br i1 %16, label %maybe_new_socket.exit, label %17

17:                                               ; preds = %14
  %18 = tail call i32 @uv__stream_open(ptr noundef nonnull %0, i32 noundef %15, i32 noundef 0) #8
  %.not.i.i = icmp eq i32 %18, 0
  br i1 %.not.i.i, label %21, label %19

19:                                               ; preds = %17
  %20 = tail call i32 @uv__close(i32 noundef %15) #8
  br label %maybe_new_socket.exit

21:                                               ; preds = %.thread, %8, %17
  store i32 1, ptr %5, align 4, !tbaa !20
  %22 = getelementptr inbounds nuw i8, ptr %0, i64 184
  %23 = load i32, ptr %22, align 8, !tbaa !4
  %24 = call i32 @setsockopt(i32 noundef %23, i32 noundef 1, i32 noundef 2, ptr noundef nonnull %5, i32 noundef 4) #8
  %.not22 = icmp eq i32 %24, 0
  br i1 %.not22, label %29, label %25

25:                                               ; preds = %21
  %26 = tail call ptr @__errno_location() #9
  %27 = load i32, ptr %26, align 4, !tbaa !20
  %28 = sub nsw i32 0, %27
  br label %maybe_new_socket.exit

29:                                               ; preds = %21
  %30 = load i16, ptr %1, align 2, !tbaa !17
  %31 = icmp eq i16 %30, 10
  br i1 %31, label %32, label %40

32:                                               ; preds = %29
  store i32 %6, ptr %5, align 4, !tbaa !20
  %33 = load i32, ptr %22, align 8, !tbaa !4
  %34 = call i32 @setsockopt(i32 noundef %33, i32 noundef 41, i32 noundef 26, ptr noundef nonnull %5, i32 noundef 4) #8
  %35 = icmp eq i32 %34, -1
  br i1 %35, label %36, label %40

36:                                               ; preds = %32
  %37 = tail call ptr @__errno_location() #9
  %38 = load i32, ptr %37, align 4, !tbaa !20
  %39 = sub nsw i32 0, %38
  br label %maybe_new_socket.exit

40:                                               ; preds = %32, %29
  %41 = tail call ptr @__errno_location() #9
  store i32 0, ptr %41, align 4, !tbaa !20
  %42 = load i32, ptr %22, align 8, !tbaa !4
  %43 = call i32 @bind(i32 noundef %42, ptr nonnull %1, i32 noundef %2) #8
  %44 = icmp eq i32 %43, -1
  br i1 %44, label %45, label %.critedge

45:                                               ; preds = %40
  %46 = load i32, ptr %41, align 4, !tbaa !20
  switch i32 %46, label %47 [
    i32 98, label %.critedge
    i32 97, label %maybe_new_socket.exit
  ]

47:                                               ; preds = %45
  %48 = sub nsw i32 0, %46
  br label %maybe_new_socket.exit

.critedge:                                        ; preds = %45, %40
  %49 = phi i32 [ 0, %40 ], [ -98, %45 ]
  %50 = getelementptr inbounds nuw i8, ptr %0, i64 232
  store i32 %49, ptr %50, align 8, !tbaa !21
  %51 = getelementptr inbounds nuw i8, ptr %0, i64 88
  %52 = load i32, ptr %51, align 8, !tbaa !22
  %53 = or i32 %52, 8192
  store i32 %53, ptr %51, align 8, !tbaa !22
  %54 = load i16, ptr %1, align 2, !tbaa !17
  %55 = icmp eq i16 %54, 10
  br i1 %55, label %56, label %maybe_new_socket.exit

56:                                               ; preds = %.critedge
  %57 = or i32 %52, 4202496
  store i32 %57, ptr %51, align 8, !tbaa !22
  br label %maybe_new_socket.exit

maybe_new_socket.exit:                            ; preds = %19, %14, %.critedge, %56, %45, %7, %47, %36, %25
  %.0 = phi i32 [ %28, %25 ], [ %39, %36 ], [ %48, %47 ], [ -22, %7 ], [ -22, %45 ], [ 0, %56 ], [ 0, %.critedge ], [ %18, %19 ], [ %15, %14 ]
  call void @llvm.lifetime.end.p0(i64 4, ptr nonnull %5) #8
  ret i32 %.0
}